; Function Attrs: mustprogress uwtable
define internal void @_ZN11opencv_testL52gtest_Size_MatType_Mat_CopyToWithMask_EvalGenerator_Ev(ptr dead_on_unwind noalias writable sret(%"class.testing::internal::ParamGenerator") align 8 %0) #4 {
  %2 = alloca %"class.testing::internal::CartesianProductHolder2.143", align 8
  call void @llvm.lifetime.start.p0(i64 40, ptr nonnull %2) #29
  %.sroa.01.0.copyload = load i64, ptr @_ZN4perfL7sz1080pE, align 8
  %.sroa.0.0.copyload = load i64, ptr @_ZN4perfL5szODDE, align 8
  store i64 %.sroa.01.0.copyload, ptr %2, align 8, !alias.scope !177
  %3 = getelementptr inbounds nuw i8, ptr %2, i64 8
  store i64 %.sroa.0.0.copyload, ptr %3, align 8, !alias.scope !177
  %4 = getelementptr inbounds nuw i8, ptr %2, i64 16
  store i32 0, ptr %4, align 8, !tbaa !180, !alias.scope !177
  %5 = getelementptr inbounds nuw i8, ptr %2, i64 20
  store i32 8, ptr %5, align 4, !tbaa !182, !alias.scope !177
  %6 = getelementptr inbounds nuw i8, ptr %2, i64 24
  store i32 16, ptr %6, align 8, !tbaa !183, !alias.scope !177
  %7 = getelementptr inbounds nuw i8, ptr %2, i64 28
  store i32 2, ptr %7, align 4, !tbaa !184, !alias.scope !177
  %8 = getelementptr inbounds nuw i8, ptr %2, i64 32
  store i32 4, ptr %8, align 8, !tbaa !185, !alias.scope !177
  %9 = getelementptr inbounds nuw i8, ptr %2, i64 36
  store i32 29, ptr %9, align 4, !tbaa !186, !alias.scope !177
  call void @_ZNK7testing8internal23CartesianProductHolder2INS0_11ValueArray2IN2cv5Size_IiEES5_EENS0_11ValueArray6IiiiiiiEEEcvNS0_14ParamGeneratorISt5tupleIJT_T0_EEEEIS5_N4perf7MatTypeEEEv(ptr dead_on_unwind writable sret(%"class.testing::internal::ParamGenerator") align 8 %0, ptr noundef nonnull align 4 dereferenceable(40) %2)
  call void @llvm.lifetime.end.p0(i64 40, ptr nonnull %2) #29
  ret void
}